MPLINK 5.08, LINKER
Linker Map File - Created Mon Apr  9 21:23:19 2018

                                 Section Info
                  Section       Type    Address   Location Size(Bytes)
                ---------  ---------  ---------  ---------  ---------
                   .org_0       code   0x000000    program   0x000004
                   .cinit    romdata   0x000004    program   0x000002
                   .org_1       code   0x000008    program   0x000004
                   .org_2       code   0x000018    program   0x000098
                   .org_3       code   0x0000c0    program   0x0004ec
.config_300001_BUILD/DEFAULT/PRODUCTION/ASSEMBL    romdata   0x300001    program   0x000001
.config_300003_BUILD/DEFAULT/PRODUCTION/ASSEMBL    romdata   0x300003    program   0x000001
.config_300005_BUILD/DEFAULT/PRODUCTION/ASSEMBL    romdata   0x300005    program   0x000001
.config_300006_BUILD/DEFAULT/PRODUCTION/ASSEMBL    romdata   0x300006    program   0x000001



                              Program Memory Usage 
                               Start         End      
                           ---------   ---------      
                            0x000000    0x000005      
                            0x000008    0x00000b      
                            0x000018    0x0000af      
                            0x0000c0    0x0005ab      
                            0x300001    0x300001      
                            0x300003    0x300003      
                            0x300005    0x300006      
            1426 out of 8472 program addresses used, program memory utilization is 16%



                              Symbols - Sorted by Name
                     Name    Address   Location    Storage File                     
                ---------  ---------  ---------  --------- ---------                
              ACTIVA_LED0   0x00059a    program     static /home/gabriel/Projects/TGIF/Assembler/Assembler.asm
              ACTIVA_LEDS   0x0004ac    program     static /home/gabriel/Projects/TGIF/Assembler/Assembler.asm
               ADCON_DONE   0x0002f8    program     static /home/gabriel/Projects/TGIF/Assembler/Assembler.asm
               BAIXADA_10   0x000540    program     static /home/gabriel/Projects/TGIF/Assembler/Assembler.asm
              BAIXADA_LED   0x000518    program     static /home/gabriel/Projects/TGIF/Assembler/Assembler.asm
           BAIXADA_LED_10   0x000548    program     static /home/gabriel/Projects/TGIF/Assembler/Assembler.asm
        BAIXADA_LED_FINAL   0x000538    program     static /home/gabriel/Projects/TGIF/Assembler/Assembler.asm
                 BLINKING   0x0004cc    program     static /home/gabriel/Projects/TGIF/Assembler/Assembler.asm
        CANVIA_ESTAT_DOWN   0x0004e6    program     static /home/gabriel/Projects/TGIF/Assembler/Assembler.asm
      CANVIA_ESTAT_ESPERA   0x0004ee    program     static /home/gabriel/Projects/TGIF/Assembler/Assembler.asm
          CANVIA_ESTAT_UP   0x00050c    program     static /home/gabriel/Projects/TGIF/Assembler/Assembler.asm
          CANVI_10_ESPERA   0x000502    program     static /home/gabriel/Projects/TGIF/Assembler/Assembler.asm
           COMPROVA_FINAL   0x00038e    program     static /home/gabriel/Projects/TGIF/Assembler/Assembler.asm
           COMPUTE_DIV_10   0x000248    program     static /home/gabriel/Projects/TGIF/Assembler/Assembler.asm
             CONTINUA_FOR   0x000200    program     static /home/gabriel/Projects/TGIF/Assembler/Assembler.asm
     CONTINUE_BAIXADA_LED   0x000528    program     static /home/gabriel/Projects/TGIF/Assembler/Assembler.asm
                     DESA   0x000352    program     static /home/gabriel/Projects/TGIF/Assembler/Assembler.asm
           DESACTIVA_LED0   0x00059e    program     static /home/gabriel/Projects/TGIF/Assembler/Assembler.asm
           DESACTIVA_LEDS   0x0004b2    program     static /home/gabriel/Projects/TGIF/Assembler/Assembler.asm
               DESA_BUCLE   0x00036e    program     static /home/gabriel/Projects/TGIF/Assembler/Assembler.asm
      DESA_CONTINUA_BUCLE   0x00037c    program     static /home/gabriel/Projects/TGIF/Assembler/Assembler.asm
          DESA_CPLX_FINAL   0x00039e    program     static /home/gabriel/Projects/TGIF/Assembler/Assembler.asm
     DESA_CPLX_LAST_BYTES   0x0003a4    program     static /home/gabriel/Projects/TGIF/Assembler/Assembler.asm
            ENCENDRE_HALF   0x00049e    program     static /home/gabriel/Projects/TGIF/Assembler/Assembler.asm
           ENCENDRE_HEART   0x000498    program     static /home/gabriel/Projects/TGIF/Assembler/Assembler.asm
ENVIAR_BIT_PRIMERA_MEITAT   0x000224    program     static /home/gabriel/Projects/TGIF/Assembler/Assembler.asm
 ENVIAR_BIT_SEGONA_MEITAT   0x000230    program     static /home/gabriel/Projects/TGIF/Assembler/Assembler.asm
               ENVIAR_FOR   0x0001b2    program     static /home/gabriel/Projects/TGIF/Assembler/Assembler.asm
         ENVIAR_FOR_SEGON   0x0001ba    program     static /home/gabriel/Projects/TGIF/Assembler/Assembler.asm
                ENVIAR_RF   0x000188    program     static /home/gabriel/Projects/TGIF/Assembler/Assembler.asm
          ENVIAR_RF_ERROR   0x00023c    program     static /home/gabriel/Projects/TGIF/Assembler/Assembler.asm
         ENVIA_PARAMETRES   0x0001e6    program     static /home/gabriel/Projects/TGIF/Assembler/Assembler.asm
              ESPERA_16MS   0x00048e    program     static /home/gabriel/Projects/TGIF/Assembler/Assembler.asm
      ESPERA_BAIXAR_DESAR   0x00047e    program     static /home/gabriel/Projects/TGIF/Assembler/Assembler.asm
     ESPERA_BAIXAR_ENVIAR   0x000486    program     static /home/gabriel/Projects/TGIF/Assembler/Assembler.asm
              ESPERA_CENT   0x00054e    program     static /home/gabriel/Projects/TGIF/Assembler/Assembler.asm
          ESPERA_POLSADOR   0x0003ca    program     static /home/gabriel/Projects/TGIF/Assembler/Assembler.asm
      ESPERA_POLSADOR_DEL   0x00040c    program     static /home/gabriel/Projects/TGIF/Assembler/Assembler.asm
    ESPERA_POLSADOR_DESAR   0x0003ec    program     static /home/gabriel/Projects/TGIF/Assembler/Assembler.asm
     ESPERA_POLSADOR_DOWN   0x0003d2    program     static /home/gabriel/Projects/TGIF/Assembler/Assembler.asm
              ESPERA_VINT   0x000558    program     static /home/gabriel/Projects/TGIF/Assembler/Assembler.asm
       FINAL_CANVI_ESPERA   0x0004fa    program     static /home/gabriel/Projects/TGIF/Assembler/Assembler.asm
              FINAL_DESAR   0x000394    program     static /home/gabriel/Projects/TGIF/Assembler/Assembler.asm
          FINAL_ENVIAR_RF   0x00021a    program     static /home/gabriel/Projects/TGIF/Assembler/Assembler.asm
                 HIGH_INT   0x00001a    program     static /home/gabriel/Projects/TGIF/Assembler/Assembler.asm
            HI_INT_VECTOR   0x000008    program     static /home/gabriel/Projects/TGIF/Assembler/Assembler.asm
         INCREMENTA_7_SEG   0x00017a    program     static /home/gabriel/Projects/TGIF/Assembler/Assembler.asm
        INCREMENTA_ESPERA   0x000444    program     static /home/gabriel/Projects/TGIF/Assembler/Assembler.asm
           INCREMENTA_FOR   0x000206    program     static /home/gabriel/Projects/TGIF/Assembler/Assembler.asm
               INIT_7_SEG   0x00016c    program     static /home/gabriel/Projects/TGIF/Assembler/Assembler.asm
               INIT_ADCON   0x000026    program     static /home/gabriel/Projects/TGIF/Assembler/Assembler.asm
               INIT_PORTS   0x00006e    program     static /home/gabriel/Projects/TGIF/Assembler/Assembler.asm
                 INIT_SIO   0x00005c    program     static /home/gabriel/Projects/TGIF/Assembler/Assembler.asm
               INIT_TIMER   0x000094    program     static /home/gabriel/Projects/TGIF/Assembler/Assembler.asm
                INIT_VARS   0x000034    program     static /home/gabriel/Projects/TGIF/Assembler/Assembler.asm
                 LEDS_OFF   0x0005a2    program     static /home/gabriel/Projects/TGIF/Assembler/Assembler.asm
                  LEDS_ON   0x000590    program     static /home/gabriel/Projects/TGIF/Assembler/Assembler.asm
                     LOOP   0x0000de    program     static /home/gabriel/Projects/TGIF/Assembler/Assembler.asm
           LOW_INT_VECTOR   0x000018    program     static /home/gabriel/Projects/TGIF/Assembler/Assembler.asm
                     MAIN   0x0000ca    program     static /home/gabriel/Projects/TGIF/Assembler/Assembler.asm
           MIG_INTENSITAT   0x0004b8    program     static /home/gabriel/Projects/TGIF/Assembler/Assembler.asm
         PETICIO_DEL_INFO   0x000428    program     static /home/gabriel/Projects/TGIF/Assembler/Assembler.asm
       PETICIO_DESAR_INFO   0x00043c    program     static /home/gabriel/Projects/TGIF/Assembler/Assembler.asm
                 POLSADOR   0x0003ae    program     static /home/gabriel/Projects/TGIF/Assembler/Assembler.asm
          POLS_DESAR_INFO   0x00044e    program     static /home/gabriel/Projects/TGIF/Assembler/Assembler.asm
         POLS_ENVIAR_INFO   0x00045e    program     static /home/gabriel/Projects/TGIF/Assembler/Assembler.asm
                PUJADA_10   0x000588    program     static /home/gabriel/Projects/TGIF/Assembler/Assembler.asm
               PUJADA_LED   0x000562    program     static /home/gabriel/Projects/TGIF/Assembler/Assembler.asm
         PUJADA_LED_FINAL   0x00057e    program     static /home/gabriel/Projects/TGIF/Assembler/Assembler.asm
             REBRE_CONFIG   0x00033e    program     static /home/gabriel/Projects/TGIF/Assembler/Assembler.asm
                    REBUT   0x00010e    program     static /home/gabriel/Projects/TGIF/Assembler/Assembler.asm
           RESET_POLSADOR   0x00044a    program     static /home/gabriel/Projects/TGIF/Assembler/Assembler.asm
              RESET_TIMER   0x0000a4    program     static /home/gabriel/Projects/TGIF/Assembler/Assembler.asm
             RESET_VECTOR   0x000000    program     static /home/gabriel/Projects/TGIF/Assembler/Assembler.asm
                   ROTATE   0x00033c    program     static /home/gabriel/Projects/TGIF/Assembler/Assembler.asm
           UNBLOCK_THREAD   0x000164    program     static /home/gabriel/Projects/TGIF/Assembler/Assembler.asm
         UNDERSCORE_7_SEG   0x000182    program     static /home/gabriel/Projects/TGIF/Assembler/Assembler.asm
              USART_ADCON   0x0002ee    program     static /home/gabriel/Projects/TGIF/Assembler/Assembler.asm
         USART_BIT_ENVIAT   0x0002d6    program     static /home/gabriel/Projects/TGIF/Assembler/Assembler.asm
        USART_BORRAR_INFO   0x0002de    program     static /home/gabriel/Projects/TGIF/Assembler/Assembler.asm
          USART_CONNECTAT   0x0002b0    program     static /home/gabriel/Projects/TGIF/Assembler/Assembler.asm
               USART_DATA   0x000278    program     static /home/gabriel/Projects/TGIF/Assembler/Assembler.asm
              USART_DESAR   0x000290    program     static /home/gabriel/Projects/TGIF/Assembler/Assembler.asm
         USART_DESAR_NCON   0x000288    program     static /home/gabriel/Projects/TGIF/Assembler/Assembler.asm
              USART_DESAT   0x000298    program     static /home/gabriel/Projects/TGIF/Assembler/Assembler.asm
       USART_DESCONNECTAT   0x0002c8    program     static /home/gabriel/Projects/TGIF/Assembler/Assembler.asm
             USART_ENVIAR   0x000280    program     static /home/gabriel/Projects/TGIF/Assembler/Assembler.asm
           USART_ERROR_RF   0x0002e6    program     static /home/gabriel/Projects/TGIF/Assembler/Assembler.asm
             USART_ESPERA   0x0002a0    program     static /home/gabriel/Projects/TGIF/Assembler/Assembler.asm
        USART_ESPERA_INFO   0x0002a8    program     static /home/gabriel/Projects/TGIF/Assembler/Assembler.asm
     USART_PROGRESS_RESET   0x000254    program     static /home/gabriel/Projects/TGIF/Assembler/Assembler.asm
              USART_SPEED   0x000264    program     static /home/gabriel/Projects/TGIF/Assembler/Assembler.asm



                              Symbols - Sorted by Address
                     Name    Address   Location    Storage File                     
                ---------  ---------  ---------  --------- ---------                
             RESET_VECTOR   0x000000    program     static /home/gabriel/Projects/TGIF/Assembler/Assembler.asm
            HI_INT_VECTOR   0x000008    program     static /home/gabriel/Projects/TGIF/Assembler/Assembler.asm
           LOW_INT_VECTOR   0x000018    program     static /home/gabriel/Projects/TGIF/Assembler/Assembler.asm
                 HIGH_INT   0x00001a    program     static /home/gabriel/Projects/TGIF/Assembler/Assembler.asm
               INIT_ADCON   0x000026    program     static /home/gabriel/Projects/TGIF/Assembler/Assembler.asm
                INIT_VARS   0x000034    program     static /home/gabriel/Projects/TGIF/Assembler/Assembler.asm
                 INIT_SIO   0x00005c    program     static /home/gabriel/Projects/TGIF/Assembler/Assembler.asm
               INIT_PORTS   0x00006e    program     static /home/gabriel/Projects/TGIF/Assembler/Assembler.asm
               INIT_TIMER   0x000094    program     static /home/gabriel/Projects/TGIF/Assembler/Assembler.asm
              RESET_TIMER   0x0000a4    program     static /home/gabriel/Projects/TGIF/Assembler/Assembler.asm
                     MAIN   0x0000ca    program     static /home/gabriel/Projects/TGIF/Assembler/Assembler.asm
                     LOOP   0x0000de    program     static /home/gabriel/Projects/TGIF/Assembler/Assembler.asm
                    REBUT   0x00010e    program     static /home/gabriel/Projects/TGIF/Assembler/Assembler.asm
           UNBLOCK_THREAD   0x000164    program     static /home/gabriel/Projects/TGIF/Assembler/Assembler.asm
               INIT_7_SEG   0x00016c    program     static /home/gabriel/Projects/TGIF/Assembler/Assembler.asm
         INCREMENTA_7_SEG   0x00017a    program     static /home/gabriel/Projects/TGIF/Assembler/Assembler.asm
         UNDERSCORE_7_SEG   0x000182    program     static /home/gabriel/Projects/TGIF/Assembler/Assembler.asm
                ENVIAR_RF   0x000188    program     static /home/gabriel/Projects/TGIF/Assembler/Assembler.asm
               ENVIAR_FOR   0x0001b2    program     static /home/gabriel/Projects/TGIF/Assembler/Assembler.asm
         ENVIAR_FOR_SEGON   0x0001ba    program     static /home/gabriel/Projects/TGIF/Assembler/Assembler.asm
         ENVIA_PARAMETRES   0x0001e6    program     static /home/gabriel/Projects/TGIF/Assembler/Assembler.asm
             CONTINUA_FOR   0x000200    program     static /home/gabriel/Projects/TGIF/Assembler/Assembler.asm
           INCREMENTA_FOR   0x000206    program     static /home/gabriel/Projects/TGIF/Assembler/Assembler.asm
          FINAL_ENVIAR_RF   0x00021a    program     static /home/gabriel/Projects/TGIF/Assembler/Assembler.asm
ENVIAR_BIT_PRIMERA_MEITAT   0x000224    program     static /home/gabriel/Projects/TGIF/Assembler/Assembler.asm
 ENVIAR_BIT_SEGONA_MEITAT   0x000230    program     static /home/gabriel/Projects/TGIF/Assembler/Assembler.asm
          ENVIAR_RF_ERROR   0x00023c    program     static /home/gabriel/Projects/TGIF/Assembler/Assembler.asm
           COMPUTE_DIV_10   0x000248    program     static /home/gabriel/Projects/TGIF/Assembler/Assembler.asm
     USART_PROGRESS_RESET   0x000254    program     static /home/gabriel/Projects/TGIF/Assembler/Assembler.asm
              USART_SPEED   0x000264    program     static /home/gabriel/Projects/TGIF/Assembler/Assembler.asm
               USART_DATA   0x000278    program     static /home/gabriel/Projects/TGIF/Assembler/Assembler.asm
             USART_ENVIAR   0x000280    program     static /home/gabriel/Projects/TGIF/Assembler/Assembler.asm
         USART_DESAR_NCON   0x000288    program     static /home/gabriel/Projects/TGIF/Assembler/Assembler.asm
              USART_DESAR   0x000290    program     static /home/gabriel/Projects/TGIF/Assembler/Assembler.asm
              USART_DESAT   0x000298    program     static /home/gabriel/Projects/TGIF/Assembler/Assembler.asm
             USART_ESPERA   0x0002a0    program     static /home/gabriel/Projects/TGIF/Assembler/Assembler.asm
        USART_ESPERA_INFO   0x0002a8    program     static /home/gabriel/Projects/TGIF/Assembler/Assembler.asm
          USART_CONNECTAT   0x0002b0    program     static /home/gabriel/Projects/TGIF/Assembler/Assembler.asm
       USART_DESCONNECTAT   0x0002c8    program     static /home/gabriel/Projects/TGIF/Assembler/Assembler.asm
         USART_BIT_ENVIAT   0x0002d6    program     static /home/gabriel/Projects/TGIF/Assembler/Assembler.asm
        USART_BORRAR_INFO   0x0002de    program     static /home/gabriel/Projects/TGIF/Assembler/Assembler.asm
           USART_ERROR_RF   0x0002e6    program     static /home/gabriel/Projects/TGIF/Assembler/Assembler.asm
              USART_ADCON   0x0002ee    program     static /home/gabriel/Projects/TGIF/Assembler/Assembler.asm
               ADCON_DONE   0x0002f8    program     static /home/gabriel/Projects/TGIF/Assembler/Assembler.asm
                   ROTATE   0x00033c    program     static /home/gabriel/Projects/TGIF/Assembler/Assembler.asm
             REBRE_CONFIG   0x00033e    program     static /home/gabriel/Projects/TGIF/Assembler/Assembler.asm
                     DESA   0x000352    program     static /home/gabriel/Projects/TGIF/Assembler/Assembler.asm
               DESA_BUCLE   0x00036e    program     static /home/gabriel/Projects/TGIF/Assembler/Assembler.asm
      DESA_CONTINUA_BUCLE   0x00037c    program     static /home/gabriel/Projects/TGIF/Assembler/Assembler.asm
           COMPROVA_FINAL   0x00038e    program     static /home/gabriel/Projects/TGIF/Assembler/Assembler.asm
              FINAL_DESAR   0x000394    program     static /home/gabriel/Projects/TGIF/Assembler/Assembler.asm
          DESA_CPLX_FINAL   0x00039e    program     static /home/gabriel/Projects/TGIF/Assembler/Assembler.asm
     DESA_CPLX_LAST_BYTES   0x0003a4    program     static /home/gabriel/Projects/TGIF/Assembler/Assembler.asm
                 POLSADOR   0x0003ae    program     static /home/gabriel/Projects/TGIF/Assembler/Assembler.asm
          ESPERA_POLSADOR   0x0003ca    program     static /home/gabriel/Projects/TGIF/Assembler/Assembler.asm
     ESPERA_POLSADOR_DOWN   0x0003d2    program     static /home/gabriel/Projects/TGIF/Assembler/Assembler.asm
    ESPERA_POLSADOR_DESAR   0x0003ec    program     static /home/gabriel/Projects/TGIF/Assembler/Assembler.asm
      ESPERA_POLSADOR_DEL   0x00040c    program     static /home/gabriel/Projects/TGIF/Assembler/Assembler.asm
         PETICIO_DEL_INFO   0x000428    program     static /home/gabriel/Projects/TGIF/Assembler/Assembler.asm
       PETICIO_DESAR_INFO   0x00043c    program     static /home/gabriel/Projects/TGIF/Assembler/Assembler.asm
        INCREMENTA_ESPERA   0x000444    program     static /home/gabriel/Projects/TGIF/Assembler/Assembler.asm
           RESET_POLSADOR   0x00044a    program     static /home/gabriel/Projects/TGIF/Assembler/Assembler.asm
          POLS_DESAR_INFO   0x00044e    program     static /home/gabriel/Projects/TGIF/Assembler/Assembler.asm
         POLS_ENVIAR_INFO   0x00045e    program     static /home/gabriel/Projects/TGIF/Assembler/Assembler.asm
      ESPERA_BAIXAR_DESAR   0x00047e    program     static /home/gabriel/Projects/TGIF/Assembler/Assembler.asm
     ESPERA_BAIXAR_ENVIAR   0x000486    program     static /home/gabriel/Projects/TGIF/Assembler/Assembler.asm
              ESPERA_16MS   0x00048e    program     static /home/gabriel/Projects/TGIF/Assembler/Assembler.asm
           ENCENDRE_HEART   0x000498    program     static /home/gabriel/Projects/TGIF/Assembler/Assembler.asm
            ENCENDRE_HALF   0x00049e    program     static /home/gabriel/Projects/TGIF/Assembler/Assembler.asm
              ACTIVA_LEDS   0x0004ac    program     static /home/gabriel/Projects/TGIF/Assembler/Assembler.asm
           DESACTIVA_LEDS   0x0004b2    program     static /home/gabriel/Projects/TGIF/Assembler/Assembler.asm
           MIG_INTENSITAT   0x0004b8    program     static /home/gabriel/Projects/TGIF/Assembler/Assembler.asm
                 BLINKING   0x0004cc    program     static /home/gabriel/Projects/TGIF/Assembler/Assembler.asm
        CANVIA_ESTAT_DOWN   0x0004e6    program     static /home/gabriel/Projects/TGIF/Assembler/Assembler.asm
      CANVIA_ESTAT_ESPERA   0x0004ee    program     static /home/gabriel/Projects/TGIF/Assembler/Assembler.asm
       FINAL_CANVI_ESPERA   0x0004fa    program     static /home/gabriel/Projects/TGIF/Assembler/Assembler.asm
          CANVI_10_ESPERA   0x000502    program     static /home/gabriel/Projects/TGIF/Assembler/Assembler.asm
          CANVIA_ESTAT_UP   0x00050c    program     static /home/gabriel/Projects/TGIF/Assembler/Assembler.asm
              BAIXADA_LED   0x000518    program     static /home/gabriel/Projects/TGIF/Assembler/Assembler.asm
     CONTINUE_BAIXADA_LED   0x000528    program     static /home/gabriel/Projects/TGIF/Assembler/Assembler.asm
        BAIXADA_LED_FINAL   0x000538    program     static /home/gabriel/Projects/TGIF/Assembler/Assembler.asm
               BAIXADA_10   0x000540    program     static /home/gabriel/Projects/TGIF/Assembler/Assembler.asm
           BAIXADA_LED_10   0x000548    program     static /home/gabriel/Projects/TGIF/Assembler/Assembler.asm
              ESPERA_CENT   0x00054e    program     static /home/gabriel/Projects/TGIF/Assembler/Assembler.asm
              ESPERA_VINT   0x000558    program     static /home/gabriel/Projects/TGIF/Assembler/Assembler.asm
               PUJADA_LED   0x000562    program     static /home/gabriel/Projects/TGIF/Assembler/Assembler.asm
         PUJADA_LED_FINAL   0x00057e    program     static /home/gabriel/Projects/TGIF/Assembler/Assembler.asm
                PUJADA_10   0x000588    program     static /home/gabriel/Projects/TGIF/Assembler/Assembler.asm
                  LEDS_ON   0x000590    program     static /home/gabriel/Projects/TGIF/Assembler/Assembler.asm
              ACTIVA_LED0   0x00059a    program     static /home/gabriel/Projects/TGIF/Assembler/Assembler.asm
           DESACTIVA_LED0   0x00059e    program     static /home/gabriel/Projects/TGIF/Assembler/Assembler.asm
                 LEDS_OFF   0x0005a2    program     static /home/gabriel/Projects/TGIF/Assembler/Assembler.asm


